target datalayout = "e-m:e-p270:32:32-p271:32:32-p272:64:64-i64:64-i128:128-f80:128-n8:16:32:64-S128"
target triple = "x86_64-pc-linux-gnu"

; Function Attrs: mustprogress nounwind uwtable
define internal noundef zeroext i8 @_ZL30mbedtls_ct_uchar_mask_of_rangehhh(i8 noundef zeroext %0, i8 noundef zeroext %1, i8 noundef zeroext %2) #0 {
  %4 = alloca i8, align 1
  %5 = alloca i8, align 1
  %6 = alloca i8, align 1
  %7 = alloca i32, align 4
  %8 = alloca i32, align 4
  store i8 %0, ptr %4, align 1, !tbaa !11
  store i8 %1, ptr %5, align 1, !tbaa !11
  store i8 %2, ptr %6, align 1, !tbaa !11
  call void @llvm.lifetime.start.p0(i64 4, ptr %7) #5
  %9 = load i8, ptr %6, align 1, !tbaa !11
  %10 = zext i8 %9 to i32
  %11 = load i8, ptr %4, align 1, !tbaa !11
  %12 = zext i8 %11 to i32
  %13 = sub i32 %10, %12
  %14 = lshr i32 %13, 8
  store i32 %14, ptr %7, align 4, !tbaa !14
  call void @llvm.lifetime.start.p0(i64 4, ptr %8) #5
  %15 = load i8, ptr %5, align 1, !tbaa !11
  %16 = zext i8 %15 to i32
  %17 = load i8, ptr %6, align 1, !tbaa !11
  %18 = zext i8 %17 to i32
  %19 = sub i32 %16, %18
  %20 = lshr i32 %19, 8
  store i32 %20, ptr %8, align 4, !tbaa !14
  %21 = load i32, ptr %7, align 4, !tbaa !14
  %22 = load i32, ptr %8, align 4, !tbaa !14
  %23 = or i32 %21, %22
  %24 = xor i32 %23, -1
  %25 = and i32 %24, 255
  %26 = trunc i32 %25 to i8
  call void @llvm.lifetime.end.p0(i64 4, ptr %8) #5
  call void @llvm.lifetime.end.p0(i64 4, ptr %7) #5
  ret i8 %26
}

; Function Attrs: mustprogress uwtable
define hidden noundef signext i8 @_Z27mbedtls_ct_base64_dec_valueh(i8 noundef zeroext %0) #2 {
  %2 = alloca i8, align 1
  %3 = alloca i8, align 1
  store i8 %0, ptr %2, align 1, !tbaa !11
  call void @llvm.lifetime.start.p0(i64 1, ptr %3) #5
  store i8 0, ptr %3, align 1, !tbaa !11
  %4 = load i8, ptr %2, align 1, !tbaa !11
  %5 = call noundef zeroext i8 @_ZL30mbedtls_ct_uchar_mask_of_rangehhh(i8 noundef zeroext 65, i8 noundef zeroext 90, i8 noundef zeroext %4)
  %6 = zext i8 %5 to i32
  %7 = load i8, ptr %2, align 1, !tbaa !11
  %8 = zext i8 %7 to i32
  %9 = sub nsw i32 %8, 65
  %10 = add nsw i32 %9, 0
  %11 = add nsw i32 %10, 1
  %12 = and i32 %6, %11
  %13 = load i8, ptr %3, align 1, !tbaa !11
  %14 = zext i8 %13 to i32
  %15 = or i32 %14, %12
  %16 = trunc i32 %15 to i8
  store i8 %16, ptr %3, align 1, !tbaa !11
  %17 = load i8, ptr %2, align 1, !tbaa !11
  %18 = call noundef zeroext i8 @_ZL30mbedtls_ct_uchar_mask_of_rangehhh(i8 noundef zeroext 97, i8 noundef zeroext 122, i8 noundef zeroext %17)
  %19 = zext i8 %18 to i32
  %20 = load i8, ptr %2, align 1, !tbaa !11
  %21 = zext i8 %20 to i32
  %22 = sub nsw i32 %21, 97
  %23 = add nsw i32 %22, 26
  %24 = add nsw i32 %23, 1
  %25 = and i32 %19, %24
  %26 = load i8, ptr %3, align 1, !tbaa !11
  %27 = zext i8 %26 to i32
  %28 = or i32 %27, %25
  %29 = trunc i32 %28 to i8
  store i8 %29, ptr %3, align 1, !tbaa !11
  %30 = load i8, ptr %2, align 1, !tbaa !11
  %31 = call noundef zeroext i8 @_ZL30mbedtls_ct_uchar_mask_of_rangehhh(i8 noundef zeroext 48, i8 noundef zeroext 57, i8 noundef zeroext %30)
  %32 = zext i8 %31 to i32
  %33 = load i8, ptr %2, align 1, !tbaa !11
  %34 = zext i8 %33 to i32
  %35 = sub nsw i32 %34, 48
  %36 = add nsw i32 %35, 52
  %37 = add nsw i32 %36, 1
  %38 = and i32 %32, %37
  %39 = load i8, ptr %3, align 1, !tbaa !11
  %40 = zext i8 %39 to i32
  %41 = or i32 %40, %38
  %42 = trunc i32 %41 to i8
  store i8 %42, ptr %3, align 1, !tbaa !11
  %43 = load i8, ptr %2, align 1, !tbaa !11
  %44 = call noundef zeroext i8 @_ZL30mbedtls_ct_uchar_mask_of_rangehhh(i8 noundef zeroext 43, i8 noundef zeroext 43, i8 noundef zeroext %43)
  %45 = zext i8 %44 to i32
  %46 = load i8, ptr %2, align 1, !tbaa !11
  %47 = zext i8 %46 to i32
  %48 = sub nsw i32 %47, 43
  %49 = add nsw i32 %48, 62
  %50 = add nsw i32 %49, 1
  %51 = and i32 %45, %50
  %52 = load i8, ptr %3, align 1, !tbaa !11
  %53 = zext i8 %52 to i32
  %54 = or i32 %53, %51
  %55 = trunc i32 %54 to i8
  store i8 %55, ptr %3, align 1, !tbaa !11
  %56 = load i8, ptr %2, align 1, !tbaa !11
  %57 = call noundef zeroext i8 @_ZL30mbedtls_ct_uchar_mask_of_rangehhh(i8 noundef zeroext 47, i8 noundef zeroext 47, i8 noundef zeroext %56)
  %58 = zext i8 %57 to i32
  %59 = load i8, ptr %2, align 1, !tbaa !11
  %60 = zext i8 %59 to i32
  %61 = sub nsw i32 %60, 47
  %62 = add nsw i32 %61, 63
  %63 = add nsw i32 %62, 1
  %64 = and i32 %58, %63
  %65 = load i8, ptr %3, align 1, !tbaa !11
  %66 = zext i8 %65 to i32
  %67 = or i32 %66, %64
  %68 = trunc i32 %67 to i8
  store i8 %68, ptr %3, align 1, !tbaa !11
  %69 = load i8, ptr %3, align 1, !tbaa !11
  %70 = zext i8 %69 to i32
  %71 = sub nsw i32 %70, 1
  %72 = trunc i32 %71 to i8
  call void @llvm.lifetime.end.p0(i64 1, ptr %3) #5
  ret i8 %72
}