; Function Attrs: mustprogress nofree norecurse nosync nounwind willreturn memory(none) uwtable
define hidden noundef signext i8 @_Z27mbedtls_ct_base64_dec_valueh(i8 noundef zeroext %0) local_unnamed_addr #2 {
  %2 = zext i8 %0 to i32
  %3 = add nuw nsw i32 %2, 65471
  %4 = sub nsw i32 90, %2
  %5 = or i32 %3, %4
  %6 = lshr i32 %5, 8
  %7 = trunc i32 %6 to i8
  %8 = xor i8 %7, -1
  %9 = add i8 %0, -64
  %10 = and i8 %9, %8
  %11 = add nuw nsw i32 %2, 65439
  %12 = sub nsw i32 122, %2
  %13 = or i32 %11, %12
  %14 = lshr i32 %13, 8
  %15 = trunc i32 %14 to i8
  %16 = xor i8 %15, -1
  %17 = add i8 %0, -70
  %18 = and i8 %17, %16
  %19 = or i8 %18, %10
  %20 = add nuw nsw i32 %2, 65488
  %21 = sub nsw i32 57, %2
  %22 = or i32 %20, %21
  %23 = lshr i32 %22, 8
  %24 = trunc i32 %23 to i8
  %25 = xor i8 %24, -1
  %26 = add i8 %0, 5
  %27 = and i8 %26, %25
  %28 = or i8 %19, %27
  %29 = add nuw nsw i32 %2, 65493
  %30 = sub nsw i32 43, %2
  %31 = or i32 %29, %30
  %32 = lshr i32 %31, 8
  %33 = trunc i32 %32 to i8
  %34 = xor i8 %33, -1
  %35 = add i8 %0, 20
  %36 = and i8 %35, %34
  %37 = or i8 %28, %36
  %38 = add nuw nsw i32 %2, 65489
  %39 = sub nsw i32 47, %2
  %40 = or i32 %38, %39
  %41 = lshr i32 %40, 8
  %42 = trunc i32 %41 to i8
  %43 = xor i8 %42, -1
  %44 = add i8 %0, 17
  %45 = and i8 %44, %43
  %46 = or i8 %37, %45
  %47 = add i8 %46, -1
  ret i8 %47
}